target datalayout = "e-m:e-p270:32:32-p271:32:32-p272:64:64-i64:64-i128:128-f80:128-n8:16:32:64-S128"
target triple = "x86_64-pc-linux-gnu"

%struct.EncoderSession = type { i32, i32, i32, i32, ptr, ptr, ptr, i32, i32, i32, i64, i64, i64, i64, i32, i64, [16 x i8], %struct.SampleInfo, i32, %union.anon.4, ptr, ptr, ptr, double, double }
%struct.SampleInfo = type { i32, i32, i32, i32, i32, i32, i32, i32 }
%union.anon.4 = type { %struct.anon.6 }
%struct.anon.6 = type { ptr, %struct.FLACDecoderData }
%struct.FLACDecoderData = type { i64, ptr, i32, i64, [1024 x ptr], i64, i32 }

; Function Attrs: nounwind sspstrong uwtable
define internal void @encoder_progress_callback(ptr noundef %0, i64 noundef %1, i64 noundef %2, i32 noundef %3, i32 noundef %4, ptr noundef %5) #0 {
  %7 = alloca ptr, align 8
  %8 = alloca i64, align 8
  %9 = alloca i64, align 8
  %10 = alloca i32, align 4
  %11 = alloca i32, align 4
  %12 = alloca ptr, align 8
  %13 = alloca ptr, align 8
  %14 = alloca i64, align 8
  %15 = alloca i64, align 8
  store ptr %0, ptr %7, align 8, !tbaa !48
  store i64 %1, ptr %8, align 8, !tbaa !9
  store i64 %2, ptr %9, align 8, !tbaa !9
  store i32 %3, ptr %10, align 4, !tbaa !13
  store i32 %4, ptr %11, align 4, !tbaa !13
  store ptr %5, ptr %12, align 8, !tbaa !48
  call void @llvm.lifetime.start.p0(i64 8, ptr %13) #14
  %16 = load ptr, ptr %12, align 8, !tbaa !48
  store ptr %16, ptr %13, align 8, !tbaa !48
  call void @llvm.lifetime.start.p0(i64 8, ptr %14) #14
  %17 = load ptr, ptr %13, align 8, !tbaa !48
  %18 = getelementptr inbounds nuw %struct.EncoderSession, ptr %17, i32 0, i32 11
  %19 = load i64, ptr %18, align 8, !tbaa !38
  store i64 %19, ptr %14, align 8, !tbaa !9
  %20 = load i64, ptr %8, align 8, !tbaa !9
  %21 = load ptr, ptr %13, align 8, !tbaa !48
  %22 = getelementptr inbounds nuw %struct.EncoderSession, ptr %21, i32 0, i32 12
  store i64 %20, ptr %22, align 8, !tbaa !61
  %23 = load i64, ptr %9, align 8, !tbaa !9
  %24 = load ptr, ptr %13, align 8, !tbaa !48
  %25 = getelementptr inbounds nuw %struct.EncoderSession, ptr %24, i32 0, i32 13
  store i64 %23, ptr %25, align 8, !tbaa !42
  %26 = load ptr, ptr %13, align 8, !tbaa !48
  %27 = getelementptr inbounds nuw %struct.EncoderSession, ptr %26, i32 0, i32 10
  %28 = load i64, ptr %27, align 8, !tbaa !37
  %29 = icmp ne i64 %28, 0
  br i1 %29, label %30, label %38

30:                                               ; preds = %6
  %31 = load i64, ptr %9, align 8, !tbaa !9
  %32 = uitofp i64 %31 to double
  %33 = load ptr, ptr %13, align 8, !tbaa !48
  %34 = getelementptr inbounds nuw %struct.EncoderSession, ptr %33, i32 0, i32 10
  %35 = load i64, ptr %34, align 8, !tbaa !37
  %36 = uitofp i64 %35 to double
  %37 = fdiv double %32, %36
  br label %39

38:                                               ; preds = %6
  br label %39

39:                                               ; preds = %38, %30
  %40 = phi double [ %37, %30 ], [ 0.000000e+00, %38 ]
  %41 = load ptr, ptr %13, align 8, !tbaa !48
  %42 = getelementptr inbounds nuw %struct.EncoderSession, ptr %41, i32 0, i32 23
  store double %40, ptr %42, align 8, !tbaa !187
  %43 = load ptr, ptr %13, align 8, !tbaa !48
  %44 = getelementptr inbounds nuw %struct.EncoderSession, ptr %43, i32 0, i32 23
  %45 = load double, ptr %44, align 8, !tbaa !187
  %46 = fcmp une double %45, 0.000000e+00
  br i1 %46, label %47, label %70

47:                                               ; preds = %39
  %48 = load i64, ptr %14, align 8, !tbaa !9
  %49 = icmp ne i64 %48, 0
  br i1 %49, label %50, label %70

50:                                               ; preds = %47
  %51 = load ptr, ptr %13, align 8, !tbaa !48
  %52 = getelementptr inbounds nuw %struct.EncoderSession, ptr %51, i32 0, i32 12
  %53 = load i64, ptr %52, align 8, !tbaa !61
  %54 = uitofp i64 %53 to double
  %55 = load i64, ptr %14, align 8, !tbaa !9
  %56 = uitofp i64 %55 to double
  %57 = load ptr, ptr %13, align 8, !tbaa !48
  %58 = getelementptr inbounds nuw %struct.EncoderSession, ptr %57, i32 0, i32 23
  %59 = load double, ptr %58, align 8, !tbaa !187
  %60 = fcmp olt double 1.000000e+00, %59
  br i1 %60, label %61, label %62

61:                                               ; preds = %50
  br label %66

62:                                               ; preds = %50
  %63 = load ptr, ptr %13, align 8, !tbaa !48
  %64 = getelementptr inbounds nuw %struct.EncoderSession, ptr %63, i32 0, i32 23
  %65 = load double, ptr %64, align 8, !tbaa !187
  br label %66

66:                                               ; preds = %62, %61
  %67 = phi double [ 1.000000e+00, %61 ], [ %65, %62 ]
  %68 = fmul double %56, %67
  %69 = fdiv double %54, %68
  br label %71

70:                                               ; preds = %47, %39
  br label %71

71:                                               ; preds = %70, %66
  %72 = phi double [ %69, %66 ], [ 0.000000e+00, %70 ]
  %73 = load ptr, ptr %13, align 8, !tbaa !48
  %74 = getelementptr inbounds nuw %struct.EncoderSession, ptr %73, i32 0, i32 24
  store double %72, ptr %74, align 8, !tbaa !64
  %75 = load ptr, ptr %13, align 8, !tbaa !48
  %76 = getelementptr inbounds nuw %struct.EncoderSession, ptr %75, i32 0, i32 10
  %77 = load i64, ptr %76, align 8, !tbaa !37
  %78 = icmp ugt i64 %77, 0
  br i1 %78, label %79, label %105

79:                                               ; preds = %71
  %80 = load i64, ptr %9, align 8, !tbaa !9
  %81 = load ptr, ptr %13, align 8, !tbaa !48
  %82 = getelementptr inbounds nuw %struct.EncoderSession, ptr %81, i32 0, i32 14
  %83 = load i32, ptr %82, align 8, !tbaa !63
  %84 = zext i32 %83 to i64
  %85 = sub i64 %80, %84
  %86 = icmp ugt i64 %85, 10000
  br i1 %86, label %87, label %105

87:                                               ; preds = %79
  call void @llvm.lifetime.start.p0(i64 8, ptr %15) #14
  %88 = call i64 @clock() #14
  store i64 %88, ptr %15, align 8, !tbaa !9
  %89 = load i64, ptr %9, align 8, !tbaa !9
  %90 = trunc i64 %89 to i32
  %91 = load ptr, ptr %13, align 8, !tbaa !48
  %92 = getelementptr inbounds nuw %struct.EncoderSession, ptr %91, i32 0, i32 14
  store i32 %90, ptr %92, align 8, !tbaa !63
  %93 = load i64, ptr %15, align 8, !tbaa !9
  %94 = load ptr, ptr %13, align 8, !tbaa !48
  %95 = getelementptr inbounds nuw %struct.EncoderSession, ptr %94, i32 0, i32 15
  %96 = load i64, ptr %95, align 8, !tbaa !62
  %97 = sub nsw i64 %93, %96
  %98 = icmp sgt i64 %97, 250000
  br i1 %98, label %99, label %104

99:                                               ; preds = %87
  %100 = load ptr, ptr %13, align 8, !tbaa !48
  call void @print_stats(ptr noundef %100)
  %101 = load i64, ptr %15, align 8, !tbaa !9
  %102 = load ptr, ptr %13, align 8, !tbaa !48
  %103 = getelementptr inbounds nuw %struct.EncoderSession, ptr %102, i32 0, i32 15
  store i64 %101, ptr %103, align 8, !tbaa !62
  br label %104

104:                                              ; preds = %99, %87
  call void @llvm.lifetime.end.p0(i64 8, ptr %15) #14
  br label %105

105:                                              ; preds = %104, %79, %71
  call void @llvm.lifetime.end.p0(i64 8, ptr %14) #14
  call void @llvm.lifetime.end.p0(i64 8, ptr %13) #14
  ret void
}