; Function Attrs: nounwind sspstrong uwtable
define internal void @encoder_progress_callback(ptr readnone captures(none) %0, i64 noundef %1, i64 noundef %2, i32 %3, i32 %4, ptr noundef captures(none) initializes((72, 88), (8432, 8448)) %5) #0 {
  %7 = getelementptr inbounds nuw i8, ptr %5, i64 64
  %8 = load i64, ptr %7, align 8, !tbaa !66
  %9 = getelementptr inbounds nuw i8, ptr %5, i64 72
  store i64 %1, ptr %9, align 8, !tbaa !187
  %10 = getelementptr inbounds nuw i8, ptr %5, i64 80
  store i64 %2, ptr %10, align 8, !tbaa !80
  %11 = getelementptr inbounds nuw i8, ptr %5, i64 56
  %12 = load i64, ptr %11, align 8, !tbaa !43
  %.not = icmp eq i64 %12, 0
  %13 = uitofp i64 %2 to double
  %14 = uitofp i64 %12 to double
  %15 = fdiv double %13, %14
  %16 = select i1 %.not, double 0.000000e+00, double %15
  %17 = getelementptr inbounds nuw i8, ptr %5, i64 8432
  store double %16, ptr %17, align 8, !tbaa !188
  %18 = fcmp une double %16, 0.000000e+00
  %19 = icmp ne i64 %8, 0
  %or.cond = select i1 %18, i1 %19, i1 false
  br i1 %or.cond, label %20, label %27

20:                                               ; preds = %6
  %21 = uitofp i64 %1 to double
  %22 = uitofp i64 %8 to double
  %23 = fcmp ogt double %16, 1.000000e+00
  %24 = select i1 %23, double 1.000000e+00, double %16
  %25 = fmul double %24, %22
  %26 = fdiv double %21, %25
  br label %27

27:                                               ; preds = %6, %20
  %28 = phi double [ %26, %20 ], [ 0.000000e+00, %6 ]
  %29 = getelementptr inbounds nuw i8, ptr %5, i64 8440
  store double %28, ptr %29, align 8, !tbaa !28
  br i1 %.not, label %44, label %30

30:                                               ; preds = %27
  %31 = getelementptr inbounds nuw i8, ptr %5, i64 88
  %32 = load i32, ptr %31, align 8, !tbaa !189
  %33 = zext i32 %32 to i64
  %34 = sub i64 %2, %33
  %35 = icmp ugt i64 %34, 10000
  br i1 %35, label %36, label %44

36:                                               ; preds = %30
  %37 = tail call i64 @clock() #20
  %38 = trunc i64 %2 to i32
  store i32 %38, ptr %31, align 8, !tbaa !189
  %39 = getelementptr inbounds nuw i8, ptr %5, i64 96
  %40 = load i64, ptr %39, align 8, !tbaa !190
  %41 = sub nsw i64 %37, %40
  %42 = icmp sgt i64 %41, 250000
  br i1 %42, label %43, label %44

43:                                               ; preds = %36
  tail call fastcc void @print_stats(ptr noundef nonnull %5)
  store i64 %37, ptr %39, align 8, !tbaa !190
  br label %44

44:                                               ; preds = %36, %43, %30, %27
  ret void
}